; Function Attrs: nounwind uwtable
define dso_local noundef ptr @GetCachedExpression(ptr noundef %0) local_unnamed_addr #0 {
  %2 = alloca ptr, align 8
  %3 = alloca ptr, align 8
  call void @llvm.lifetime.start.p0(i64 8, ptr nonnull %2) #9
  call void @llvm.lifetime.start.p0(i64 8, ptr nonnull %3) #9
  %4 = call ptr @expression_planner_with_deps(ptr noundef %0, ptr noundef nonnull %2, ptr noundef nonnull %3) #9
  %5 = load ptr, ptr @CurrentMemoryContext, align 8
  %6 = call ptr @AllocSetContextCreateInternal(ptr noundef %5, ptr noundef nonnull @.str.8, i64 noundef 0, i64 noundef 1024, i64 noundef 8192) #9
  %7 = load ptr, ptr @CurrentMemoryContext, align 8
  store ptr %6, ptr @CurrentMemoryContext, align 8
  %8 = call ptr @palloc(i64 noundef 64) #9
  store i32 838275847, ptr %8, align 8
  %9 = call ptr @copyObjectImpl(ptr noundef %4) #9
  %10 = getelementptr inbounds nuw i8, ptr %8, i64 8
  store ptr %9, ptr %10, align 8
  %11 = getelementptr inbounds nuw i8, ptr %8, i64 16
  store i8 1, ptr %11, align 8
  %12 = load ptr, ptr %2, align 8
  %13 = call ptr @copyObjectImpl(ptr noundef %12) #9
  %14 = getelementptr inbounds nuw i8, ptr %8, i64 24
  store ptr %13, ptr %14, align 8
  %15 = load ptr, ptr %3, align 8
  %16 = call ptr @copyObjectImpl(ptr noundef %15) #9
  %17 = getelementptr inbounds nuw i8, ptr %8, i64 32
  store ptr %16, ptr %17, align 8
  %18 = getelementptr inbounds nuw i8, ptr %8, i64 40
  store ptr %6, ptr %18, align 8
  store ptr %7, ptr @CurrentMemoryContext, align 8
  %19 = load ptr, ptr @CacheMemoryContext, align 8
  call void @MemoryContextSetParent(ptr noundef %6, ptr noundef %19) #9
  %20 = load ptr, ptr getelementptr inbounds nuw (i8, ptr @cached_expression_list, i64 8), align 8
  %21 = icmp eq ptr %20, null
  br i1 %21, label %22, label %.dlist_push_tail.exit_crit_edge

.dlist_push_tail.exit_crit_edge:                  ; preds = %1
  %.pre = load ptr, ptr @cached_expression_list, align 8
  br label %dlist_push_tail.exit

22:                                               ; preds = %1
  store ptr @cached_expression_list, ptr getelementptr inbounds nuw (i8, ptr @cached_expression_list, i64 8), align 8
  br label %dlist_push_tail.exit

dlist_push_tail.exit:                             ; preds = %.dlist_push_tail.exit_crit_edge, %22
  %23 = phi ptr [ %.pre, %.dlist_push_tail.exit_crit_edge ], [ @cached_expression_list, %22 ]
  %24 = getelementptr inbounds nuw i8, ptr %8, i64 48
  %25 = getelementptr inbounds nuw i8, ptr %8, i64 56
  store ptr @cached_expression_list, ptr %25, align 8
  store ptr %23, ptr %24, align 8
  %26 = getelementptr inbounds nuw i8, ptr %23, i64 8
  store ptr %24, ptr %26, align 8
  store ptr %24, ptr @cached_expression_list, align 8
  call void @llvm.lifetime.end.p0(i64 8, ptr nonnull %3) #9
  call void @llvm.lifetime.end.p0(i64 8, ptr nonnull %2) #9
  ret ptr %8
}